target datalayout = "e-m:e-p270:32:32-p271:32:32-p272:64:64-i64:64-i128:128-f80:128-n8:16:32:64-S128"
target triple = "x86_64-pc-linux-gnu"

%"class.llvm::IntrusiveRefCntPtr" = type { ptr }
%"class.std::error_code" = type { i32, ptr }
%"class.llvm::vfs::FileSystem.base" = type <{ %"class.llvm::RTTIExtends", %"class.llvm::ThreadSafeRefCountedBase" }>
%"class.llvm::RTTIExtends" = type { %"class.llvm::RTTIRoot" }
%"class.llvm::RTTIRoot" = type { ptr }
%"class.llvm::ThreadSafeRefCountedBase" = type { %"struct.std::atomic" }
%"struct.std::atomic" = type { %"struct.std::__atomic_base" }
%"struct.std::__atomic_base" = type { i32 }
%"class.llvm::vfs::OverlayFileSystem" = type { %"class.llvm::RTTIExtends.base", %"class.llvm::SmallVector" }
%"class.llvm::RTTIExtends.base" = type { %"class.llvm::vfs::FileSystem.base" }
%"class.llvm::SmallVector" = type { %"class.llvm::SmallVectorImpl.43", %"struct.llvm::SmallVectorStorage" }
%"class.llvm::SmallVectorImpl.43" = type { %"class.llvm::SmallVectorTemplateBase.44" }
%"class.llvm::SmallVectorTemplateBase.44" = type { %"class.llvm::SmallVectorTemplateCommon.45" }
%"class.llvm::SmallVectorTemplateCommon.45" = type { %"class.llvm::SmallVectorBase.46" }
%"class.llvm::SmallVectorBase.46" = type { ptr, i32, i32 }
%"struct.llvm::SmallVectorStorage" = type { [8 x i8] }

; Function Attrs: mustprogress nounwind uwtable
define linkonce_odr hidden void @_ZNSt10error_codeC2Ev(ptr noundef nonnull align 8 dereferenceable(16) %0) unnamed_addr #0 comdat align 2 {
  %2 = alloca ptr, align 8
  store ptr %0, ptr %2, align 8
  %3 = load ptr, ptr %2, align 8
  %4 = getelementptr inbounds nuw %"class.std::error_code", ptr %3, i32 0, i32 0
  store i32 0, ptr %4, align 8
  %5 = getelementptr inbounds nuw %"class.std::error_code", ptr %3, i32 0, i32 1
  %6 = call noundef nonnull align 8 dereferenceable(8) ptr @_ZNSt3_V215system_categoryEv() #14
  store ptr %6, ptr %5, align 8
  ret void
}

; Function Attrs: mustprogress nounwind uwtable
define linkonce_odr hidden noundef zeroext i1 @_ZNKSt10error_codecvbEv(ptr noundef nonnull align 8 dereferenceable(16) %0) #0 comdat align 2 {
  %2 = alloca ptr, align 8
  store ptr %0, ptr %2, align 8
  %3 = load ptr, ptr %2, align 8
  %4 = getelementptr inbounds nuw %"class.std::error_code", ptr %3, i32 0, i32 0
  %5 = load i32, ptr %4, align 8
  %6 = icmp ne i32 %5, 0
  ret i1 %6
}

; Function Attrs: mustprogress nounwind uwtable
define linkonce_odr hidden noundef ptr @_ZNK4llvm18IntrusiveRefCntPtrINS_3vfs10FileSystemEEptEv(ptr noundef nonnull align 8 dereferenceable(8) %0) #0 comdat align 2 {
  %2 = alloca ptr, align 8
  store ptr %0, ptr %2, align 8
  %3 = load ptr, ptr %2, align 8
  %4 = getelementptr inbounds nuw %"class.llvm::IntrusiveRefCntPtr", ptr %3, i32 0, i32 0
  %5 = load ptr, ptr %4, align 8
  ret ptr %5
}

; Function Attrs: mustprogress nounwind uwtable
define linkonce_odr hidden noundef ptr @_ZN4llvm25SmallVectorTemplateCommonINS_18IntrusiveRefCntPtrINS_3vfs10FileSystemEEEvE3endEv(ptr noundef nonnull align 8 dereferenceable(16) %0) #0 comdat align 2 {
  %2 = alloca ptr, align 8
  store ptr %0, ptr %2, align 8
  %3 = load ptr, ptr %2, align 8
  %4 = call noundef ptr @_ZN4llvm25SmallVectorTemplateCommonINS_18IntrusiveRefCntPtrINS_3vfs10FileSystemEEEvE5beginEv(ptr noundef nonnull align 8 dereferenceable(16) %3)
  %5 = call noundef i64 @_ZNK4llvm15SmallVectorBaseIjE4sizeEv(ptr noundef nonnull align 8 dereferenceable(16) %3)
  %6 = getelementptr inbounds %"class.llvm::IntrusiveRefCntPtr", ptr %4, i64 %5
  ret ptr %6
}

; Function Attrs: mustprogress nounwind uwtable
define linkonce_odr hidden noundef ptr @_ZN4llvm25SmallVectorTemplateCommonINS_18IntrusiveRefCntPtrINS_3vfs10FileSystemEEEvE5beginEv(ptr noundef nonnull align 8 dereferenceable(16) %0) #0 comdat align 2 {
  %2 = alloca ptr, align 8
  store ptr %0, ptr %2, align 8
  %3 = load ptr, ptr %2, align 8
  %4 = getelementptr inbounds nuw %"class.llvm::SmallVectorBase.46", ptr %3, i32 0, i32 0
  %5 = load ptr, ptr %4, align 8
  ret ptr %5
}

; Function Attrs: mustprogress nounwind uwtable
define dso_local { i32, ptr } @_ZN4llvm3vfs17OverlayFileSystem26setCurrentWorkingDirectoryERKNS_5TwineE(ptr noundef nonnull align 8 dereferenceable(40) %0, ptr noundef nonnull align 8 dereferenceable(34) %1) unnamed_addr #0 align 2 {
  %3 = alloca %"class.std::error_code", align 8
  %4 = alloca ptr, align 8
  %5 = alloca ptr, align 8
  %6 = alloca ptr, align 8
  %7 = alloca ptr, align 8
  %8 = alloca ptr, align 8
  %9 = alloca ptr, align 8
  store ptr %0, ptr %4, align 8
  store ptr %1, ptr %5, align 8
  %10 = load ptr, ptr %4, align 8
  %11 = getelementptr inbounds nuw %"class.llvm::vfs::OverlayFileSystem", ptr %10, i32 0, i32 1
  store ptr %11, ptr %6, align 8
  %12 = load ptr, ptr %6, align 8
  %13 = call noundef ptr @_ZN4llvm25SmallVectorTemplateCommonINS_18IntrusiveRefCntPtrINS_3vfs10FileSystemEEEvE5beginEv(ptr noundef nonnull align 8 dereferenceable(16) %12)
  store ptr %13, ptr %7, align 8
  %14 = load ptr, ptr %6, align 8
  %15 = call noundef ptr @_ZN4llvm25SmallVectorTemplateCommonINS_18IntrusiveRefCntPtrINS_3vfs10FileSystemEEEvE3endEv(ptr noundef nonnull align 8 dereferenceable(16) %14)
  store ptr %15, ptr %8, align 8
  br label %16

16:                                               ; preds = %36, %2
  %17 = load ptr, ptr %7, align 8
  %18 = load ptr, ptr %8, align 8
  %19 = icmp ne ptr %17, %18
  br i1 %19, label %20, label %39

20:                                               ; preds = %16
  %21 = load ptr, ptr %7, align 8
  store ptr %21, ptr %9, align 8
  %22 = load ptr, ptr %9, align 8
  %23 = call noundef ptr @_ZNK4llvm18IntrusiveRefCntPtrINS_3vfs10FileSystemEEptEv(ptr noundef nonnull align 8 dereferenceable(8) %22)
  %24 = load ptr, ptr %5, align 8
  %25 = load ptr, ptr %23, align 8
  %26 = getelementptr inbounds ptr, ptr %25, i64 8
  %27 = load ptr, ptr %26, align 8
  %28 = call { i32, ptr } %27(ptr noundef nonnull align 8 dereferenceable(12) %23, ptr noundef nonnull align 8 dereferenceable(34) %24)
  %29 = getelementptr inbounds nuw { i32, ptr }, ptr %3, i32 0, i32 0
  %30 = extractvalue { i32, ptr } %28, 0
  store i32 %30, ptr %29, align 8
  %31 = getelementptr inbounds nuw { i32, ptr }, ptr %3, i32 0, i32 1
  %32 = extractvalue { i32, ptr } %28, 1
  store ptr %32, ptr %31, align 8
  %33 = call noundef zeroext i1 @_ZNKSt10error_codecvbEv(ptr noundef nonnull align 8 dereferenceable(16) %3) #5
  br i1 %33, label %34, label %35

34:                                               ; preds = %20
  br label %40

35:                                               ; preds = %20
  br label %36

36:                                               ; preds = %35
  %37 = load ptr, ptr %7, align 8
  %38 = getelementptr inbounds %"class.llvm::IntrusiveRefCntPtr", ptr %37, i32 1
  store ptr %38, ptr %7, align 8
  br label %16

39:                                               ; preds = %16
  call void @_ZNSt10error_codeC2Ev(ptr noundef nonnull align 8 dereferenceable(16) %3) #5
  br label %40

40:                                               ; preds = %39, %34
  %41 = load { i32, ptr }, ptr %3, align 8
  ret { i32, ptr } %41
}