; Function Attrs: mustprogress nounwind uwtable
define dso_local { i32, ptr } @_ZN4llvm3vfs17OverlayFileSystem26setCurrentWorkingDirectoryERKNS_5TwineE(ptr noundef nonnull align 8 dereferenceable(40) %0, ptr noundef nonnull align 8 dereferenceable(34) %1) unnamed_addr #0 align 2 {
  %3 = getelementptr inbounds nuw i8, ptr %0, i64 16
  %4 = load ptr, ptr %3, align 8
  %5 = tail call noundef i64 @_ZNK4llvm15SmallVectorBaseIjE4sizeEv(ptr noundef nonnull align 8 dereferenceable(16) %3) #27
  %6 = getelementptr inbounds %"class.llvm::IntrusiveRefCntPtr", ptr %4, i64 %5
  %.not13 = icmp eq i64 %5, 0
  br i1 %.not13, label %._crit_edge, label %.lr.ph

7:                                                ; preds = %.lr.ph
  %8 = getelementptr inbounds i8, ptr %.014, i64 8
  %.not = icmp eq ptr %8, %6
  br i1 %.not, label %._crit_edge, label %.lr.ph

.lr.ph:                                           ; preds = %2, %7
  %.014 = phi ptr [ %8, %7 ], [ %4, %2 ]
  %9 = load ptr, ptr %.014, align 8
  %10 = load ptr, ptr %9, align 8
  %11 = getelementptr inbounds i8, ptr %10, i64 64
  %12 = load ptr, ptr %11, align 8
  %13 = tail call { i32, ptr } %12(ptr noundef nonnull align 8 dereferenceable(12) %9, ptr noundef nonnull align 8 dereferenceable(34) %1) #27
  %14 = extractvalue { i32, ptr } %13, 0
  %.not10 = icmp eq i32 %14, 0
  br i1 %.not10, label %7, label %.loopexit

._crit_edge:                                      ; preds = %7, %2
  %15 = tail call noundef nonnull align 8 dereferenceable(8) ptr @_ZNSt3_V215system_categoryEv() #29
  br label %17

.loopexit:                                        ; preds = %.lr.ph
  %16 = extractvalue { i32, ptr } %13, 1
  br label %17

17:                                               ; preds = %.loopexit, %._crit_edge
  %.sroa.4.0 = phi ptr [ %15, %._crit_edge ], [ %16, %.loopexit ]
  %.sroa.0.0 = phi i32 [ 0, %._crit_edge ], [ %14, %.loopexit ]
  %.fca.0.insert = insertvalue { i32, ptr } poison, i32 %.sroa.0.0, 0
  %.fca.1.insert = insertvalue { i32, ptr } %.fca.0.insert, ptr %.sroa.4.0, 1
  ret { i32, ptr } %.fca.1.insert
}